target datalayout = "e-m:e-p270:32:32-p271:32:32-p272:64:64-i64:64-i128:128-f80:128-n8:16:32:64-S128"
target triple = "x86_64-unknown-linux-gnu"

%"class.absl::lts_20230802::Status" = type { i64 }
%"class.grpc_core::DebugLocation" = type { i8 }
%"class.std::basic_string_view" = type { i64, ptr }
%"class.std::vector" = type { %"struct.std::_Vector_base" }
%"struct.std::_Vector_base" = type { %"struct.std::_Vector_base<absl::lts_20230802::Status, std::allocator<absl::lts_20230802::Status>>::_Vector_impl" }
%"struct.std::_Vector_base<absl::lts_20230802::Status, std::allocator<absl::lts_20230802::Status>>::_Vector_impl" = type { %"struct.std::_Vector_base<absl::lts_20230802::Status, std::allocator<absl::lts_20230802::Status>>::_Vector_impl_data" }
%"struct.std::_Vector_base<absl::lts_20230802::Status, std::allocator<absl::lts_20230802::Status>>::_Vector_impl_data" = type { ptr, ptr, ptr }

@.str = private unnamed_addr constant [135 x i8] c"generated/home/dtcxzyw/WorkSpace/Projects/compilers/llvm-opt-benchmark/bench/grpc/grpc/src/core/lib/iomgr/socket_utils_common_posix.cc\00", align 1
@.str.14 = private unnamed_addr constant [24 x i8] c"setsockopt(TCP_NODELAY)\00", align 1
@.str.15 = private unnamed_addr constant [24 x i8] c"getsockopt(TCP_NODELAY)\00", align 1
@.str.16 = private unnamed_addr constant [26 x i8] c"Failed to set TCP_NODELAY\00", align 1
@.str.29 = private unnamed_addr constant [114 x i8] c"generated/home/dtcxzyw/WorkSpace/Projects/compilers/llvm-opt-benchmark/bench/grpc/grpc/src/core/lib/iomgr/error.h\00", align 1
@.str.30 = private unnamed_addr constant [12 x i8] c"!error.ok()\00", align 1

; Function Attrs: mustprogress nounwind uwtable
define linkonce_odr void @_ZNSt15__new_allocatorIN4absl12lts_202308026StatusEEC2Ev(ptr noundef nonnull align 1 dereferenceable(1) %this) unnamed_addr #5 comdat align 2 {
entry:
  %this.addr = alloca ptr, align 8
  store ptr %this, ptr %this.addr, align 8
  ret void
}

; Function Attrs: mustprogress nounwind uwtable
define linkonce_odr void @_ZNSt12_Vector_baseIN4absl12lts_202308026StatusESaIS2_EE17_Vector_impl_dataC2Ev(ptr noundef nonnull align 8 dereferenceable(24) %this) unnamed_addr #5 comdat align 2 {
entry:
  %this.addr = alloca ptr, align 8
  store ptr %this, ptr %this.addr, align 8
  %this1 = load ptr, ptr %this.addr, align 8
  %_M_start = getelementptr inbounds %"struct.std::_Vector_base<absl::lts_20230802::Status, std::allocator<absl::lts_20230802::Status>>::_Vector_impl_data", ptr %this1, i32 0, i32 0
  store ptr null, ptr %_M_start, align 8
  %_M_finish = getelementptr inbounds %"struct.std::_Vector_base<absl::lts_20230802::Status, std::allocator<absl::lts_20230802::Status>>::_Vector_impl_data", ptr %this1, i32 0, i32 1
  store ptr null, ptr %_M_finish, align 8
  %_M_end_of_storage = getelementptr inbounds %"struct.std::_Vector_base<absl::lts_20230802::Status, std::allocator<absl::lts_20230802::Status>>::_Vector_impl_data", ptr %this1, i32 0, i32 2
  store ptr null, ptr %_M_end_of_storage, align 8
  ret void
}

; Function Attrs: mustprogress nounwind uwtable
define linkonce_odr void @_ZNSaIN4absl12lts_202308026StatusEEC2Ev(ptr noundef nonnull align 1 dereferenceable(1) %this) unnamed_addr #5 comdat align 2 {
entry:
  %this.addr = alloca ptr, align 8
  store ptr %this, ptr %this.addr, align 8
  %this1 = load ptr, ptr %this.addr, align 8
  call void @_ZNSt15__new_allocatorIN4absl12lts_202308026StatusEEC2Ev(ptr noundef nonnull align 1 dereferenceable(1) %this1) #3
  ret void
}

; Function Attrs: mustprogress nounwind uwtable
define linkonce_odr void @_ZNSt12_Vector_baseIN4absl12lts_202308026StatusESaIS2_EE12_Vector_implC2Ev(ptr noundef nonnull align 8 dereferenceable(24) %this) unnamed_addr #5 comdat align 2 {
entry:
  %this.addr = alloca ptr, align 8
  store ptr %this, ptr %this.addr, align 8
  %this1 = load ptr, ptr %this.addr, align 8
  call void @_ZNSaIN4absl12lts_202308026StatusEEC2Ev(ptr noundef nonnull align 1 dereferenceable(1) %this1) #3
  call void @_ZNSt12_Vector_baseIN4absl12lts_202308026StatusESaIS2_EE17_Vector_impl_dataC2Ev(ptr noundef nonnull align 8 dereferenceable(24) %this1) #3
  ret void
}

; Function Attrs: mustprogress nounwind uwtable
define linkonce_odr noundef i64 @_ZN4absl12lts_202308026Status12MovedFromRepEv() #5 comdat align 2 {
entry:
  %call = call noundef i64 @_ZN4absl12lts_202308026Status16CodeToInlinedRepENS0_10StatusCodeE(i32 noundef 13)
  %or = or i64 %call, 2
  ret i64 %or
}

; Function Attrs: mustprogress nounwind uwtable
define linkonce_odr noundef i64 @_ZN4absl12lts_202308026Status16CodeToInlinedRepENS0_10StatusCodeE(i32 noundef %code) #5 comdat align 2 {
entry:
  %code.addr = alloca i32, align 4
  store i32 %code, ptr %code.addr, align 4
  %0 = load i32, ptr %code.addr, align 4
  %conv = sext i32 %0 to i64
  %shl = shl i64 %conv, 2
  ret i64 %shl
}

; Function Attrs: mustprogress nounwind uwtable
define linkonce_odr void @_ZN4absl12lts_202308026StatusC2Ev(ptr noundef nonnull align 8 dereferenceable(8) %this) unnamed_addr #5 comdat align 2 {
entry:
  %this.addr = alloca ptr, align 8
  store ptr %this, ptr %this.addr, align 8
  %this1 = load ptr, ptr %this.addr, align 8
  %rep_ = getelementptr inbounds %"class.absl::lts_20230802::Status", ptr %this1, i32 0, i32 0
  %call = call noundef i64 @_ZN4absl12lts_202308026Status16CodeToInlinedRepENS0_10StatusCodeE(i32 noundef 0)
  store i64 %call, ptr %rep_, align 8
  ret void
}

; Function Attrs: mustprogress nounwind uwtable
define linkonce_odr void @_ZNSt12_Vector_baseIN4absl12lts_202308026StatusESaIS2_EEC2Ev(ptr noundef nonnull align 8 dereferenceable(24) %this) unnamed_addr #5 comdat align 2 {
entry:
  %this.addr = alloca ptr, align 8
  store ptr %this, ptr %this.addr, align 8
  %this1 = load ptr, ptr %this.addr, align 8
  %_M_impl = getelementptr inbounds %"struct.std::_Vector_base", ptr %this1, i32 0, i32 0
  call void @_ZNSt12_Vector_baseIN4absl12lts_202308026StatusESaIS2_EE12_Vector_implC2Ev(ptr noundef nonnull align 8 dereferenceable(24) %_M_impl) #3
  ret void
}

; Function Attrs: mustprogress nounwind uwtable
define linkonce_odr noundef i64 @_ZNSt11char_traitsIcE6lengthEPKc(ptr noundef %__s) #5 comdat align 2 {
entry:
  %__s.addr = alloca ptr, align 8
  store ptr %__s, ptr %__s.addr, align 8
  %0 = load ptr, ptr %__s.addr, align 8
  %call = call i64 @strlen(ptr noundef %0) #3
  ret i64 %call
}

; Function Attrs: mustprogress nounwind uwtable
define linkonce_odr void @_ZN4absl12lts_202308026StatusC2EOS1_(ptr noundef nonnull align 8 dereferenceable(8) %this, ptr noundef nonnull align 8 dereferenceable(8) %x) unnamed_addr #5 comdat align 2 personality ptr @__gxx_personality_v0 {
entry:
  %this.addr = alloca ptr, align 8
  %x.addr = alloca ptr, align 8
  store ptr %this, ptr %this.addr, align 8
  store ptr %x, ptr %x.addr, align 8
  %this1 = load ptr, ptr %this.addr, align 8
  %rep_ = getelementptr inbounds %"class.absl::lts_20230802::Status", ptr %this1, i32 0, i32 0
  %0 = load ptr, ptr %x.addr, align 8
  %rep_2 = getelementptr inbounds %"class.absl::lts_20230802::Status", ptr %0, i32 0, i32 0
  %1 = load i64, ptr %rep_2, align 8
  store i64 %1, ptr %rep_, align 8
  %call = invoke noundef i64 @_ZN4absl12lts_202308026Status12MovedFromRepEv()
          to label %invoke.cont unwind label %terminate.lpad

invoke.cont:                                      ; preds = %entry
  %2 = load ptr, ptr %x.addr, align 8
  %rep_3 = getelementptr inbounds %"class.absl::lts_20230802::Status", ptr %2, i32 0, i32 0
  store i64 %call, ptr %rep_3, align 8
  ret void

terminate.lpad:                                   ; preds = %entry
  %3 = landingpad { ptr, i32 }
          catch ptr null
  %4 = extractvalue { ptr, i32 } %3, 0
  call void @__clang_call_terminate(ptr %4) #13
  unreachable
}

; Function Attrs: mustprogress uwtable
define linkonce_odr noundef zeroext i1 @_ZNK4absl12lts_202308026Status2okEv(ptr noundef nonnull align 8 dereferenceable(8) %this) #4 comdat align 2 {
entry:
  %this.addr = alloca ptr, align 8
  store ptr %this, ptr %this.addr, align 8
  %this1 = load ptr, ptr %this.addr, align 8
  %rep_ = getelementptr inbounds %"class.absl::lts_20230802::Status", ptr %this1, i32 0, i32 0
  %0 = load i64, ptr %rep_, align 8
  %call = call noundef i64 @_ZN4absl12lts_202308026Status16CodeToInlinedRepENS0_10StatusCodeE(i32 noundef 0)
  %cmp = icmp eq i64 %0, %call
  ret i1 %cmp
}

; Function Attrs: mustprogress uwtable
define linkonce_odr void @_ZN4absl12lts_202308028OkStatusEv(ptr noalias sret(%"class.absl::lts_20230802::Status") align 8 %agg.result) #4 comdat {
entry:
  %result.ptr = alloca ptr, align 8
  store ptr %agg.result, ptr %result.ptr, align 8
  call void @_ZN4absl12lts_202308026StatusC2Ev(ptr noundef nonnull align 8 dereferenceable(8) %agg.result)
  ret void
}

; Function Attrs: mustprogress nounwind uwtable
define linkonce_odr void @_ZNSt6vectorIN4absl12lts_202308026StatusESaIS2_EEC2Ev(ptr noundef nonnull align 8 dereferenceable(24) %this) unnamed_addr #5 comdat align 2 {
entry:
  %this.addr = alloca ptr, align 8
  store ptr %this, ptr %this.addr, align 8
  %this1 = load ptr, ptr %this.addr, align 8
  call void @_ZNSt12_Vector_baseIN4absl12lts_202308026StatusESaIS2_EEC2Ev(ptr noundef nonnull align 8 dereferenceable(24) %this1) #3
  ret void
}

; Function Attrs: mustprogress nounwind uwtable
define linkonce_odr void @_ZNSt17basic_string_viewIcSt11char_traitsIcEEC2EPKc(ptr noundef nonnull align 8 dereferenceable(16) %this, ptr noundef nonnull %__str) unnamed_addr #5 comdat align 2 personality ptr @__gxx_personality_v0 {
entry:
  %this.addr = alloca ptr, align 8
  %__str.addr = alloca ptr, align 8
  store ptr %this, ptr %this.addr, align 8
  store ptr %__str, ptr %__str.addr, align 8
  %this1 = load ptr, ptr %this.addr, align 8
  %_M_len = getelementptr inbounds %"class.std::basic_string_view", ptr %this1, i32 0, i32 0
  %0 = load ptr, ptr %__str.addr, align 8
  %call = invoke noundef i64 @_ZNSt11char_traitsIcE6lengthEPKc(ptr noundef %0)
          to label %invoke.cont unwind label %terminate.lpad

invoke.cont:                                      ; preds = %entry
  store i64 %call, ptr %_M_len, align 8
  %_M_str = getelementptr inbounds %"class.std::basic_string_view", ptr %this1, i32 0, i32 1
  %1 = load ptr, ptr %__str.addr, align 8
  store ptr %1, ptr %_M_str, align 8
  ret void

terminate.lpad:                                   ; preds = %entry
  %2 = landingpad { ptr, i32 }
          catch ptr null
  %3 = extractvalue { ptr, i32 } %2, 0
  call void @__clang_call_terminate(ptr %3) #13
  unreachable
}

; Function Attrs: mustprogress uwtable
define linkonce_odr void @_Z20grpc_assert_never_okN4absl12lts_202308026StatusE(ptr noalias sret(%"class.absl::lts_20230802::Status") align 8 %agg.result, ptr noundef %error) #4 comdat {
entry:
  %result.ptr = alloca ptr, align 8
  %error.indirect_addr = alloca ptr, align 8
  store ptr %agg.result, ptr %result.ptr, align 8
  store ptr %error, ptr %error.indirect_addr, align 8
  br label %do.body

do.body:                                          ; preds = %entry
  %call = call noundef zeroext i1 @_ZNK4absl12lts_202308026Status2okEv(ptr noundef nonnull align 8 dereferenceable(8) %error)
  %lnot = xor i1 %call, true
  %lnot1 = xor i1 %lnot, true
  br i1 %lnot1, label %if.then, label %if.end

if.then:                                          ; preds = %do.body
  call void @gpr_assertion_failed(ptr noundef @.str.29, i32 noundef 78, ptr noundef @.str.30) #12
  unreachable

if.end:                                           ; preds = %do.body
  br label %do.end

do.end:                                           ; preds = %if.end
  call void @_ZN4absl12lts_202308026StatusC2EOS1_(ptr noundef nonnull align 8 dereferenceable(8) %agg.result, ptr noundef nonnull align 8 dereferenceable(8) %error) #3
  ret void
}

; Function Attrs: mustprogress nounwind uwtable
define linkonce_odr void @_ZN9grpc_core13DebugLocationC2EPKci(ptr noundef nonnull align 1 dereferenceable(1) %this, ptr noundef %0, i32 noundef %1) unnamed_addr #5 comdat align 2 {
entry:
  %this.addr = alloca ptr, align 8
  %.addr = alloca ptr, align 8
  %.addr1 = alloca i32, align 4
  store ptr %this, ptr %this.addr, align 8
  store ptr %0, ptr %.addr, align 8
  store i32 %1, ptr %.addr1, align 4
  ret void
}

; Function Attrs: mustprogress uwtable
define void @_Z27grpc_set_socket_low_latencyii(ptr noalias sret(%"class.absl::lts_20230802::Status") align 8 %agg.result, i32 noundef %fd, i32 noundef %low_latency) #4 personality ptr @__gxx_personality_v0 {
entry:
  %result.ptr = alloca ptr, align 8
  %fd.addr = alloca i32, align 4
  %low_latency.addr = alloca i32, align 4
  %val = alloca i32, align 4
  %newval = alloca i32, align 4
  %intlen = alloca i32, align 4
  %agg.tmp = alloca %"class.absl::lts_20230802::Status", align 8
  %ref.tmp = alloca %"class.grpc_core::DebugLocation", align 1
  %exn.slot = alloca ptr, align 8
  %ehselector.slot = alloca i32, align 4
  %agg.tmp6 = alloca %"class.absl::lts_20230802::Status", align 8
  %ref.tmp7 = alloca %"class.grpc_core::DebugLocation", align 1
  %agg.tmp16 = alloca %"class.std::basic_string_view", align 8
  %ref.tmp17 = alloca %"class.grpc_core::DebugLocation", align 1
  %agg.tmp18 = alloca %"class.std::vector", align 8
  store ptr %agg.result, ptr %result.ptr, align 8
  store i32 %fd, ptr %fd.addr, align 4
  store i32 %low_latency, ptr %low_latency.addr, align 4
  %0 = load i32, ptr %low_latency.addr, align 4
  %cmp = icmp ne i32 %0, 0
  %conv = zext i1 %cmp to i32
  store i32 %conv, ptr %val, align 4
  store i32 4, ptr %intlen, align 4
  %1 = load i32, ptr %fd.addr, align 4
  %call = call i32 @setsockopt(i32 noundef %1, i32 noundef 6, i32 noundef 1, ptr noundef %val, i32 noundef 4) #3
  %cmp1 = icmp ne i32 0, %call
  br i1 %cmp1, label %if.then, label %if.end

if.then:                                          ; preds = %entry
  call void @_ZN9grpc_core13DebugLocationC2EPKci(ptr noundef nonnull align 1 dereferenceable(1) %ref.tmp, ptr noundef @.str, i32 noundef 241)
  %call2 = call ptr @__errno_location() #11
  %2 = load i32, ptr %call2, align 4
  call void @_Z13grpc_os_errorRKN9grpc_core13DebugLocationEiPKc(ptr sret(%"class.absl::lts_20230802::Status") align 8 %agg.tmp, ptr noundef nonnull align 1 dereferenceable(1) %ref.tmp, i32 noundef %2, ptr noundef @.str.14)
  invoke void @_Z20grpc_assert_never_okN4absl12lts_202308026StatusE(ptr sret(%"class.absl::lts_20230802::Status") align 8 %agg.result, ptr noundef %agg.tmp)
          to label %invoke.cont unwind label %lpad

invoke.cont:                                      ; preds = %if.then
  call void @_ZN4absl12lts_202308026StatusD2Ev(ptr noundef nonnull align 8 dereferenceable(8) %agg.tmp) #3
  br label %return

lpad:                                             ; preds = %if.then
  %3 = landingpad { ptr, i32 }
          cleanup
  %4 = extractvalue { ptr, i32 } %3, 0
  store ptr %4, ptr %exn.slot, align 8
  %5 = extractvalue { ptr, i32 } %3, 1
  store i32 %5, ptr %ehselector.slot, align 4
  call void @_ZN4absl12lts_202308026StatusD2Ev(ptr noundef nonnull align 8 dereferenceable(8) %agg.tmp) #3
  br label %eh.resume

if.end:                                           ; preds = %entry
  %6 = load i32, ptr %fd.addr, align 4
  %call3 = call i32 @getsockopt(i32 noundef %6, i32 noundef 6, i32 noundef 1, ptr noundef %newval, ptr noundef %intlen) #3
  %cmp4 = icmp ne i32 0, %call3
  br i1 %cmp4, label %if.then5, label %if.end11

if.then5:                                         ; preds = %if.end
  call void @_ZN9grpc_core13DebugLocationC2EPKci(ptr noundef nonnull align 1 dereferenceable(1) %ref.tmp7, ptr noundef @.str, i32 noundef 244)
  %call8 = call ptr @__errno_location() #11
  %7 = load i32, ptr %call8, align 4
  call void @_Z13grpc_os_errorRKN9grpc_core13DebugLocationEiPKc(ptr sret(%"class.absl::lts_20230802::Status") align 8 %agg.tmp6, ptr noundef nonnull align 1 dereferenceable(1) %ref.tmp7, i32 noundef %7, ptr noundef @.str.15)
  invoke void @_Z20grpc_assert_never_okN4absl12lts_202308026StatusE(ptr sret(%"class.absl::lts_20230802::Status") align 8 %agg.result, ptr noundef %agg.tmp6)
          to label %invoke.cont10 unwind label %lpad9

invoke.cont10:                                    ; preds = %if.then5
  call void @_ZN4absl12lts_202308026StatusD2Ev(ptr noundef nonnull align 8 dereferenceable(8) %agg.tmp6) #3
  br label %return

lpad9:                                            ; preds = %if.then5
  %8 = landingpad { ptr, i32 }
          cleanup
  %9 = extractvalue { ptr, i32 } %8, 0
  store ptr %9, ptr %exn.slot, align 8
  %10 = extractvalue { ptr, i32 } %8, 1
  store i32 %10, ptr %ehselector.slot, align 4
  call void @_ZN4absl12lts_202308026StatusD2Ev(ptr noundef nonnull align 8 dereferenceable(8) %agg.tmp6) #3
  br label %eh.resume

if.end11:                                         ; preds = %if.end
  %11 = load i32, ptr %newval, align 4
  %cmp12 = icmp ne i32 %11, 0
  %conv13 = zext i1 %cmp12 to i32
  %12 = load i32, ptr %val, align 4
  %cmp14 = icmp ne i32 %conv13, %12
  br i1 %cmp14, label %if.then15, label %if.end21

if.then15:                                        ; preds = %if.end11
  call void @_ZNSt17basic_string_viewIcSt11char_traitsIcEEC2EPKc(ptr noundef nonnull align 8 dereferenceable(16) %agg.tmp16, ptr noundef @.str.16) #3
  call void @_ZN9grpc_core13DebugLocationC2EPKci(ptr noundef nonnull align 1 dereferenceable(1) %ref.tmp17, ptr noundef @.str, i32 noundef 247)
  call void @llvm.memset.p0.i64(ptr align 8 %agg.tmp18, i8 0, i64 24, i1 false)
  call void @_ZNSt6vectorIN4absl12lts_202308026StatusESaIS2_EEC2Ev(ptr noundef nonnull align 8 dereferenceable(24) %agg.tmp18) #3
  %13 = getelementptr inbounds { i64, ptr }, ptr %agg.tmp16, i32 0, i32 0
  %14 = load i64, ptr %13, align 8
  %15 = getelementptr inbounds { i64, ptr }, ptr %agg.tmp16, i32 0, i32 1
  %16 = load ptr, ptr %15, align 8
  invoke void @_ZN9grpc_core12StatusCreateEN4absl12lts_2023080210StatusCodeESt17basic_string_viewIcSt11char_traitsIcEERKNS_13DebugLocationESt6vectorINS1_6StatusESaISB_EE(ptr sret(%"class.absl::lts_20230802::Status") align 8 %agg.result, i32 noundef 2, i64 %14, ptr %16, ptr noundef nonnull align 1 dereferenceable(1) %ref.tmp17, ptr noundef %agg.tmp18)
          to label %invoke.cont20 unwind label %lpad19

invoke.cont20:                                    ; preds = %if.then15
  call void @_ZNSt6vectorIN4absl12lts_202308026StatusESaIS2_EED2Ev(ptr noundef nonnull align 8 dereferenceable(24) %agg.tmp18) #3
  br label %return

lpad19:                                           ; preds = %if.then15
  %17 = landingpad { ptr, i32 }
          cleanup
  %18 = extractvalue { ptr, i32 } %17, 0
  store ptr %18, ptr %exn.slot, align 8
  %19 = extractvalue { ptr, i32 } %17, 1
  store i32 %19, ptr %ehselector.slot, align 4
  call void @_ZNSt6vectorIN4absl12lts_202308026StatusESaIS2_EED2Ev(ptr noundef nonnull align 8 dereferenceable(24) %agg.tmp18) #3
  br label %eh.resume

if.end21:                                         ; preds = %if.end11
  call void @_ZN4absl12lts_202308028OkStatusEv(ptr sret(%"class.absl::lts_20230802::Status") align 8 %agg.result)
  br label %return

return:                                           ; preds = %if.end21, %invoke.cont20, %invoke.cont10, %invoke.cont
  ret void

eh.resume:                                        ; preds = %lpad19, %lpad9, %lpad
  %exn = load ptr, ptr %exn.slot, align 8
  %sel = load i32, ptr %ehselector.slot, align 4
  %lpad.val = insertvalue { ptr, i32 } poison, ptr %exn, 0
  %lpad.val22 = insertvalue { ptr, i32 } %lpad.val, i32 %sel, 1
  resume { ptr, i32 } %lpad.val22
}