; Function Attrs: mustprogress uwtable
define void @_Z27grpc_set_socket_low_latencyii(ptr noalias sret(%"class.absl::lts_20230802::Status") align 8 %agg.result, i32 noundef %fd, i32 noundef %low_latency) local_unnamed_addr #3 personality ptr @__gxx_personality_v0 {
entry:
  %val = alloca i32, align 4
  %newval = alloca i32, align 4
  %intlen = alloca i32, align 4
  %agg.tmp = alloca %"class.absl::lts_20230802::Status", align 8
  %ref.tmp = alloca %"class.grpc_core::DebugLocation", align 1
  %agg.tmp6 = alloca %"class.absl::lts_20230802::Status", align 8
  %ref.tmp7 = alloca %"class.grpc_core::DebugLocation", align 1
  %ref.tmp17 = alloca %"class.grpc_core::DebugLocation", align 1
  %agg.tmp18 = alloca %"class.std::vector", align 8
  %cmp = icmp ne i32 %low_latency, 0
  %conv = zext i1 %cmp to i32
  store i32 %conv, ptr %val, align 4
  store i32 4, ptr %intlen, align 4
  %call = call i32 @setsockopt(i32 noundef %fd, i32 noundef 6, i32 noundef 1, ptr noundef nonnull %val, i32 noundef 4) #16
  %cmp1.not = icmp eq i32 %call, 0
  br i1 %cmp1.not, label %if.end, label %if.then

if.then:                                          ; preds = %entry
  %call2 = tail call ptr @__errno_location() #17
  %0 = load i32, ptr %call2, align 4
  call void @_Z13grpc_os_errorRKN9grpc_core13DebugLocationEiPKc(ptr nonnull sret(%"class.absl::lts_20230802::Status") align 8 %agg.tmp, ptr noundef nonnull align 1 dereferenceable(1) %ref.tmp, i32 noundef %0, ptr noundef nonnull @.str.14)
  call void @llvm.experimental.noalias.scope.decl(metadata !54)
  %1 = load i64, ptr %agg.tmp, align 8, !noalias !54
  %cmp.i.i = icmp eq i64 %1, 0
  br i1 %cmp.i.i, label %if.then.i, label %_ZN4absl12lts_202308026StatusD2Ev.exit

if.then.i:                                        ; preds = %if.then
  invoke void @gpr_assertion_failed(ptr noundef nonnull @.str.29, i32 noundef 78, ptr noundef nonnull @.str.30) #18
          to label %.noexc unwind label %lpad

.noexc:                                           ; preds = %if.then.i
  unreachable

_ZN4absl12lts_202308026StatusD2Ev.exit:           ; preds = %if.then
  store i64 %1, ptr %agg.result, align 8, !alias.scope !54
  br label %return

lpad:                                             ; preds = %if.then.i
  %2 = landingpad { ptr, i32 }
          cleanup
  call void @_ZN4absl12lts_202308026StatusD2Ev(ptr noundef nonnull align 8 dereferenceable(8) %agg.tmp) #16
  br label %eh.resume

if.end:                                           ; preds = %entry
  %call3 = call i32 @getsockopt(i32 noundef %fd, i32 noundef 6, i32 noundef 1, ptr noundef nonnull %newval, ptr noundef nonnull %intlen) #16
  %cmp4.not = icmp eq i32 %call3, 0
  br i1 %cmp4.not, label %if.end11, label %if.then5

if.then5:                                         ; preds = %if.end
  %call8 = tail call ptr @__errno_location() #17
  %3 = load i32, ptr %call8, align 4
  call void @_Z13grpc_os_errorRKN9grpc_core13DebugLocationEiPKc(ptr nonnull sret(%"class.absl::lts_20230802::Status") align 8 %agg.tmp6, ptr noundef nonnull align 1 dereferenceable(1) %ref.tmp7, i32 noundef %3, ptr noundef nonnull @.str.15)
  call void @llvm.experimental.noalias.scope.decl(metadata !57)
  %4 = load i64, ptr %agg.tmp6, align 8, !noalias !57
  %cmp.i.i3 = icmp eq i64 %4, 0
  br i1 %cmp.i.i3, label %if.then.i4, label %_ZN4absl12lts_202308026StatusD2Ev.exit11

if.then.i4:                                       ; preds = %if.then5
  invoke void @gpr_assertion_failed(ptr noundef nonnull @.str.29, i32 noundef 78, ptr noundef nonnull @.str.30) #18
          to label %.noexc5 unwind label %lpad9

.noexc5:                                          ; preds = %if.then.i4
  unreachable

_ZN4absl12lts_202308026StatusD2Ev.exit11:         ; preds = %if.then5
  store i64 %4, ptr %agg.result, align 8, !alias.scope !57
  br label %return

lpad9:                                            ; preds = %if.then.i4
  %5 = landingpad { ptr, i32 }
          cleanup
  call void @_ZN4absl12lts_202308026StatusD2Ev(ptr noundef nonnull align 8 dereferenceable(8) %agg.tmp6) #16
  br label %eh.resume

if.end11:                                         ; preds = %if.end
  %6 = load i32, ptr %newval, align 4
  %cmp12 = icmp ne i32 %6, 0
  %conv13 = zext i1 %cmp12 to i32
  %7 = load i32, ptr %val, align 4
  %cmp14.not = icmp eq i32 %7, %conv13
  br i1 %cmp14.not, label %if.end21, label %if.then15

if.then15:                                        ; preds = %if.end11
  call void @llvm.memset.p0.i64(ptr noundef nonnull align 8 dereferenceable(24) %agg.tmp18, i8 0, i64 24, i1 false)
  invoke void @_ZN9grpc_core12StatusCreateEN4absl12lts_2023080210StatusCodeESt17basic_string_viewIcSt11char_traitsIcEERKNS_13DebugLocationESt6vectorINS1_6StatusESaISB_EE(ptr sret(%"class.absl::lts_20230802::Status") align 8 %agg.result, i32 noundef 2, i64 25, ptr nonnull @.str.16, ptr noundef nonnull align 1 dereferenceable(1) %ref.tmp17, ptr noundef nonnull %agg.tmp18)
          to label %invoke.cont20 unwind label %lpad19

invoke.cont20:                                    ; preds = %if.then15
  %8 = load ptr, ptr %agg.tmp18, align 8
  %_M_finish.i = getelementptr inbounds i8, ptr %agg.tmp18, i64 8
  %9 = load ptr, ptr %_M_finish.i, align 8
  %cmp.not3.i.i.i.i = icmp eq ptr %8, %9
  br i1 %cmp.not3.i.i.i.i, label %invoke.cont.i, label %for.body.i.i.i.i

for.body.i.i.i.i:                                 ; preds = %invoke.cont20, %_ZSt8_DestroyIN4absl12lts_202308026StatusEEvPT_.exit.i.i.i.i
  %__first.addr.04.i.i.i.i = phi ptr [ %incdec.ptr.i.i.i.i, %_ZSt8_DestroyIN4absl12lts_202308026StatusEEvPT_.exit.i.i.i.i ], [ %8, %invoke.cont20 ]
  %10 = load i64, ptr %__first.addr.04.i.i.i.i, align 8
  %and.i.i.i.i.i.i.i.i = and i64 %10, 1
  %cmp.i.i.i.i.i.i.i.i = icmp eq i64 %and.i.i.i.i.i.i.i.i, 0
  br i1 %cmp.i.i.i.i.i.i.i.i, label %_ZSt8_DestroyIN4absl12lts_202308026StatusEEvPT_.exit.i.i.i.i, label %if.then.i.i.i.i.i.i.i

if.then.i.i.i.i.i.i.i:                            ; preds = %for.body.i.i.i.i
  invoke void @_ZN4absl12lts_202308026Status15UnrefNonInlinedEm(i64 noundef %10)
          to label %_ZSt8_DestroyIN4absl12lts_202308026StatusEEvPT_.exit.i.i.i.i unwind label %terminate.lpad.i.i.i.i.i.i

terminate.lpad.i.i.i.i.i.i:                       ; preds = %if.then.i.i.i.i.i.i.i
  %11 = landingpad { ptr, i32 }
          catch ptr null
  %12 = extractvalue { ptr, i32 } %11, 0
  call void @__clang_call_terminate(ptr %12) #19
  unreachable

_ZSt8_DestroyIN4absl12lts_202308026StatusEEvPT_.exit.i.i.i.i: ; preds = %if.then.i.i.i.i.i.i.i, %for.body.i.i.i.i
  %incdec.ptr.i.i.i.i = getelementptr inbounds i8, ptr %__first.addr.04.i.i.i.i, i64 8
  %cmp.not.i.i.i.i = icmp eq ptr %incdec.ptr.i.i.i.i, %9
  br i1 %cmp.not.i.i.i.i, label %invoke.contthread-pre-split.i, label %for.body.i.i.i.i, !llvm.loop !40

invoke.contthread-pre-split.i:                    ; preds = %_ZSt8_DestroyIN4absl12lts_202308026StatusEEvPT_.exit.i.i.i.i
  %.pr.i = load ptr, ptr %agg.tmp18, align 8
  br label %invoke.cont.i

invoke.cont.i:                                    ; preds = %invoke.contthread-pre-split.i, %invoke.cont20
  %13 = phi ptr [ %.pr.i, %invoke.contthread-pre-split.i ], [ %8, %invoke.cont20 ]
  %tobool.not.i.i.i = icmp eq ptr %13, null
  br i1 %tobool.not.i.i.i, label %return, label %if.then.i.i.i

if.then.i.i.i:                                    ; preds = %invoke.cont.i
  call void @_ZdlPv(ptr noundef nonnull %13) #20
  br label %return

lpad19:                                           ; preds = %if.then15
  %14 = landingpad { ptr, i32 }
          cleanup
  call void @_ZNSt6vectorIN4absl12lts_202308026StatusESaIS2_EED2Ev(ptr noundef nonnull align 8 dereferenceable(24) %agg.tmp18) #16
  br label %eh.resume

if.end21:                                         ; preds = %if.end11
  store i64 0, ptr %agg.result, align 8, !alias.scope !60
  br label %return

return:                                           ; preds = %if.then.i.i.i, %invoke.cont.i, %if.end21, %_ZN4absl12lts_202308026StatusD2Ev.exit11, %_ZN4absl12lts_202308026StatusD2Ev.exit
  ret void

eh.resume:                                        ; preds = %lpad19, %lpad9, %lpad
  %.pn = phi { ptr, i32 } [ %2, %lpad ], [ %5, %lpad9 ], [ %14, %lpad19 ]
  resume { ptr, i32 } %.pn
}